target datalayout = "e-m:e-p270:32:32-p271:32:32-p272:64:64-i64:64-i128:128-f80:128-n8:16:32:64-S128"
target triple = "x86_64-pc-linux-gnu"

@.str.9 = private unnamed_addr constant [29 x i8] c"could not open file \22%s\22: %m\00", align 1
@.str.12 = private unnamed_addr constant [52 x i8] c"could not synchronize file system for file \22%s\22: %m\00", align 1

; Function Attrs: nounwind uwtable
define internal void @do_syncfs(ptr noundef %0) #0 {
  %2 = alloca ptr, align 8
  %3 = alloca i32, align 4
  %4 = alloca i32, align 4
  store ptr %0, ptr %2, align 8
  call void @llvm.lifetime.start.p0(i64 4, ptr %3) #9
  %5 = load ptr, ptr %2, align 8
  %6 = call i32 (ptr, i32, ...) @open(ptr noundef %5, i32 noundef 0, i32 noundef 0)
  store i32 %6, ptr %3, align 4
  %7 = load i32, ptr %3, align 4
  %8 = icmp slt i32 %7, 0
  br i1 %8, label %9, label %11

9:                                                ; preds = %1
  %10 = load ptr, ptr %2, align 8
  call void (i32, i32, ptr, ...) @pg_log_generic(i32 noundef 4, i32 noundef 0, ptr noundef @.str.9, ptr noundef %10)
  store i32 1, ptr %4, align 4
  br label %22

11:                                               ; preds = %1
  %12 = load i32, ptr %3, align 4
  %13 = call i32 @syncfs(i32 noundef %12) #9
  %14 = icmp slt i32 %13, 0
  br i1 %14, label %15, label %19

15:                                               ; preds = %11
  %16 = load ptr, ptr %2, align 8
  call void (i32, i32, ptr, ...) @pg_log_generic(i32 noundef 4, i32 noundef 0, ptr noundef @.str.12, ptr noundef %16)
  %17 = load i32, ptr %3, align 4
  %18 = call i32 @close(i32 noundef %17)
  call void @exit(i32 noundef 1) #12
  unreachable

19:                                               ; preds = %11
  %20 = load i32, ptr %3, align 4
  %21 = call i32 @close(i32 noundef %20)
  store i32 0, ptr %4, align 4
  br label %22

22:                                               ; preds = %19, %9
  call void @llvm.lifetime.end.p0(i64 4, ptr %3) #9
  %23 = load i32, ptr %4, align 4
  switch i32 %23, label %25 [
    i32 0, label %24
    i32 1, label %24
  ]

24:                                               ; preds = %22, %22
  ret void

25:                                               ; preds = %22
  unreachable
}