; Function Attrs: nounwind uwtable
define internal fastcc void @do_syncfs(ptr noundef %0) unnamed_addr #0 {
  %2 = tail call i32 (ptr, i32, ...) @open(ptr noundef %0, i32 noundef 0, i32 noundef 0) #11
  %3 = icmp slt i32 %2, 0
  br i1 %3, label %4, label %5

4:                                                ; preds = %1
  tail call void (i32, i32, ptr, ...) @pg_log_generic(i32 noundef 4, i32 noundef 0, ptr noundef nonnull @.str.9, ptr noundef %0) #11
  br label %12

5:                                                ; preds = %1
  %6 = tail call i32 @syncfs(i32 noundef %2) #11
  %7 = icmp slt i32 %6, 0
  br i1 %7, label %8, label %10

8:                                                ; preds = %5
  tail call void (i32, i32, ptr, ...) @pg_log_generic(i32 noundef 4, i32 noundef 0, ptr noundef nonnull @.str.12, ptr noundef %0) #11
  %9 = tail call i32 @close(i32 noundef %2) #11
  tail call void @exit(i32 noundef 1) #13
  unreachable

10:                                               ; preds = %5
  %11 = tail call i32 @close(i32 noundef %2) #11
  br label %12

12:                                               ; preds = %10, %4
  ret void
}